; ModuleID = '38/494.c'
source_filename = "38/494.c"
target datalayout = "e-m:e-p270:32:32-p271:32:32-p272:64:64-i64:64-f80:128-n8:16:32:64-S128"
target triple = "x86_64-pc-linux-gnu"

@.str = private unnamed_addr constant [3 x i8] c"%d\00", align 1
@.str.1 = private unnamed_addr constant [4 x i8] c"%lf\00", align 1
@.str.2 = private unnamed_addr constant [7 x i8] c"%.5lf\0A\00", align 1

; Function Attrs: noinline nounwind uwtable
define dso_local i32 @main(i32 %0, i8** %1) #0 {
  %3 = alloca i32, align 4
  %4 = alloca i32, align 4
  %5 = alloca i8**, align 8
  %6 = alloca i32, align 4
  %7 = alloca i32, align 4
  %8 = alloca i32, align 4
  %9 = alloca i32, align 4
  %10 = alloca i32, align 4
  %11 = alloca i32, align 4
  %12 = alloca double, align 8
  %13 = alloca double, align 8
  %14 = alloca [1001 x double], align 16
  %15 = alloca [1001 x double], align 16
  store i32 0, i32* %3, align 4
  store i32 %0, i32* %4, align 4
  store i8** %1, i8*** %5, align 8
  %16 = call i32 (i8*, ...) @__isoc99_scanf(i8* getelementptr inbounds ([3 x i8], [3 x i8]* @.str, i64 0, i64 0), i32* %6)
  store double 0.000000e+00, double* %12, align 8
  store double 0.000000e+00, double* %13, align 8
  store i32 1, i32* %8, align 4
  br label %17

17:                                               ; preds = %80, %2
  %18 = load i32, i32* %8, align 4
  %19 = load i32, i32* %6, align 4
  %20 = icmp sle i32 %18, %19
  br i1 %20, label %21, label %83

21:                                               ; preds = %17
  store double 0.000000e+00, double* %13, align 8
  store double 0.000000e+00, double* %12, align 8
  %22 = call i32 (i8*, ...) @__isoc99_scanf(i8* getelementptr inbounds ([3 x i8], [3 x i8]* @.str, i64 0, i64 0), i32* %11)
  store i32 1, i32* %9, align 4
  br label %23

23:                                               ; preds = %38, %21
  %24 = load i32, i32* %9, align 4
  %25 = load i32, i32* %11, align 4
  %26 = icmp sle i32 %24, %25
  br i1 %26, label %27, label %41

27:                                               ; preds = %23
  %28 = load i32, i32* %9, align 4
  %29 = sext i32 %28 to i64
  %30 = getelementptr inbounds [1001 x double], [1001 x double]* %14, i64 0, i64 %29
  %31 = call i32 (i8*, ...) @__isoc99_scanf(i8* getelementptr inbounds ([4 x i8], [4 x i8]* @.str.1, i64 0, i64 0), double* %30)
  %32 = load double, double* %12, align 8
  %33 = load i32, i32* %9, align 4
  %34 = sext i32 %33 to i64
  %35 = getelementptr inbounds [1001 x double], [1001 x double]* %14, i64 0, i64 %34
  %36 = load double, double* %35, align 8
  %37 = fadd double %32, %36
  store double %37, double* %12, align 8
  br label %38

38:                                               ; preds = %27
  %39 = load i32, i32* %9, align 4
  %40 = add nsw i32 %39, 1
  store i32 %40, i32* %9, align 4
  br label %23

41:                                               ; preds = %23
  store i32 1, i32* %10, align 4
  br label %42

42:                                               ; preds = %68, %41
  %43 = load i32, i32* %10, align 4
  %44 = load i32, i32* %11, align 4
  %45 = icmp sle i32 %43, %44
  br i1 %45, label %46, label %71

46:                                               ; preds = %42
  %47 = load double, double* %13, align 8
  %48 = load i32, i32* %10, align 4
  %49 = sext i32 %48 to i64
  %50 = getelementptr inbounds [1001 x double], [1001 x double]* %14, i64 0, i64 %49
  %51 = load double, double* %50, align 8
  %52 = load double, double* %12, align 8
  %53 = load i32, i32* %11, align 4
  %54 = sitofp i32 %53 to double
  %55 = fdiv double %52, %54
  %56 = fsub double %51, %55
  %57 = load i32, i32* %10, align 4
  %58 = sext i32 %57 to i64
  %59 = getelementptr inbounds [1001 x double], [1001 x double]* %14, i64 0, i64 %58
  %60 = load double, double* %59, align 8
  %61 = load double, double* %12, align 8
  %62 = load i32, i32* %11, align 4
  %63 = sitofp i32 %62 to double
  %64 = fdiv double %61, %63
  %65 = fsub double %60, %64
  %66 = fmul double %56, %65
  %67 = fadd double %47, %66
  store double %67, double* %13, align 8
  br label %68

68:                                               ; preds = %46
  %69 = load i32, i32* %10, align 4
  %70 = add nsw i32 %69, 1
  store i32 %70, i32* %10, align 4
  br label %42

71:                                               ; preds = %42
  %72 = load double, double* %13, align 8
  %73 = load i32, i32* %11, align 4
  %74 = sitofp i32 %73 to double
  %75 = fdiv double %72, %74
  %76 = call double @sqrt(double %75) #3
  %77 = load i32, i32* %8, align 4
  %78 = sext i32 %77 to i64
  %79 = getelementptr inbounds [1001 x double], [1001 x double]* %15, i64 0, i64 %78
  store double %76, double* %79, align 8
  br label %80

80:                                               ; preds = %71
  %81 = load i32, i32* %8, align 4
  %82 = add nsw i32 %81, 1
  store i32 %82, i32* %8, align 4
  br label %17

83:                                               ; preds = %17
  store i32 1, i32* %7, align 4
  br label %84

84:                                               ; preds = %94, %83
  %85 = load i32, i32* %7, align 4
  %86 = load i32, i32* %6, align 4
  %87 = icmp sle i32 %85, %86
  br i1 %87, label %88, label %97

88:                                               ; preds = %84
  %89 = load i32, i32* %7, align 4
  %90 = sext i32 %89 to i64
  %91 = getelementptr inbounds [1001 x double], [1001 x double]* %15, i64 0, i64 %90
  %92 = load double, double* %91, align 8
  %93 = call i32 (i8*, ...) @printf(i8* getelementptr inbounds ([7 x i8], [7 x i8]* @.str.2, i64 0, i64 0), double %92)
  br label %94

94:                                               ; preds = %88
  %95 = load i32, i32* %7, align 4
  %96 = add nsw i32 %95, 1
  store i32 %96, i32* %7, align 4
  br label %84

97:                                               ; preds = %84
  ret i32 0
}

declare dso_local i32 @__isoc99_scanf(i8*, ...) #1

; Function Attrs: nounwind
declare dso_local double @sqrt(double) #2

declare dso_local i32 @printf(i8*, ...) #1


!llvm.module.flags = !{!0}
!llvm.ident = !{!1}

!0 = !{i32 1, !"wchar_size", i32 4}
!1 = !{!"clang version 10.0.0-4ubuntu1 "}
